target datalayout = "e-m:e-p270:32:32-p271:32:32-p272:64:64-i64:64-i128:128-f80:128-n8:16:32:64-S128"
target triple = "x86_64-pc-linux-gnu"

%struct.ossl_cmp_msg_st = type { ptr, ptr, ptr, ptr, ptr, ptr }
%struct.ossl_cmp_pkibody_st = type { i32, %union.anon }
%union.anon = type { ptr }
%struct.ossl_cmp_revrepcontent_st = type { ptr, ptr, ptr }

@.str = private unnamed_addr constant [32 x i8] c"../openssl/crypto/cmp/cmp_msg.c\00", align 1
@__func__.ossl_cmp_rp_new = private unnamed_addr constant [16 x i8] c"ossl_cmp_rp_new\00", align 1

; Function Attrs: nounwind uwtable
define void @OSSL_CMP_MSG_free(ptr noundef %0) #0 {
  %2 = alloca ptr, align 8
  store ptr %0, ptr %2, align 8, !tbaa !10
  %3 = load ptr, ptr %2, align 8, !tbaa !10
  %4 = call ptr @OSSL_CMP_MSG_it()
  call void @ASN1_item_free(ptr noundef %3, ptr noundef %4)
  ret void
}

; Function Attrs: inlinehint nounwind uwtable
define internal ptr @ossl_check_OSSL_CRMF_CERTID_type(ptr noundef %0) #4 {
  %2 = alloca ptr, align 8
  store ptr %0, ptr %2, align 8, !tbaa !71
  %3 = load ptr, ptr %2, align 8, !tbaa !71
  ret ptr %3
}

; Function Attrs: inlinehint nounwind uwtable
define internal ptr @ossl_check_OSSL_CRMF_CERTID_sk_type(ptr noundef %0) #4 {
  %2 = alloca ptr, align 8
  store ptr %0, ptr %2, align 8, !tbaa !134
  %3 = load ptr, ptr %2, align 8, !tbaa !134
  ret ptr %3
}

; Function Attrs: inlinehint nounwind uwtable
define internal ptr @ossl_check_OSSL_CMP_PKISI_type(ptr noundef %0) #4 {
  %2 = alloca ptr, align 8
  store ptr %0, ptr %2, align 8, !tbaa !82
  %3 = load ptr, ptr %2, align 8, !tbaa !82
  ret ptr %3
}

; Function Attrs: inlinehint nounwind uwtable
define internal ptr @ossl_check_OSSL_CMP_PKISI_sk_type(ptr noundef %0) #4 {
  %2 = alloca ptr, align 8
  store ptr %0, ptr %2, align 8, !tbaa !133
  %3 = load ptr, ptr %2, align 8, !tbaa !133
  ret ptr %3
}

; Function Attrs: nounwind uwtable
define ptr @ossl_cmp_rp_new(ptr noundef %0, ptr noundef %1, ptr noundef %2, i32 noundef %3) #0 {
  %5 = alloca ptr, align 8
  %6 = alloca ptr, align 8
  %7 = alloca ptr, align 8
  %8 = alloca ptr, align 8
  %9 = alloca i32, align 4
  %10 = alloca ptr, align 8
  %11 = alloca ptr, align 8
  %12 = alloca ptr, align 8
  %13 = alloca ptr, align 8
  %14 = alloca i32, align 4
  store ptr %0, ptr %6, align 8, !tbaa !34
  store ptr %1, ptr %7, align 8, !tbaa !82
  store ptr %2, ptr %8, align 8, !tbaa !71
  store i32 %3, ptr %9, align 4, !tbaa !20
  call void @llvm.lifetime.start.p0(i64 8, ptr %10) #6
  store ptr null, ptr %10, align 8, !tbaa !125
  call void @llvm.lifetime.start.p0(i64 8, ptr %11) #6
  store ptr null, ptr %11, align 8, !tbaa !82
  call void @llvm.lifetime.start.p0(i64 8, ptr %12) #6
  store ptr null, ptr %12, align 8, !tbaa !71
  call void @llvm.lifetime.start.p0(i64 8, ptr %13) #6
  store ptr null, ptr %13, align 8, !tbaa !10
  %15 = load ptr, ptr %6, align 8, !tbaa !34
  %16 = icmp ne ptr %15, null
  br i1 %16, label %17, label %20

17:                                               ; preds = %4
  %18 = load ptr, ptr %7, align 8, !tbaa !82
  %19 = icmp ne ptr %18, null
  br label %20

20:                                               ; preds = %17, %4
  %21 = phi i1 [ false, %4 ], [ %19, %17 ]
  %22 = zext i1 %21 to i32
  %23 = icmp ne i32 %22, 0
  %24 = xor i1 %23, true
  %25 = xor i1 %24, true
  %26 = zext i1 %25 to i32
  %27 = sext i32 %26 to i64
  %28 = call i64 @llvm.expect.i64(i64 %27, i64 1)
  %29 = icmp ne i64 %28, 0
  br i1 %29, label %31, label %30

30:                                               ; preds = %20
  store ptr null, ptr %5, align 8
  store i32 1, ptr %14, align 4
  br label %99

31:                                               ; preds = %20
  %32 = load ptr, ptr %6, align 8, !tbaa !34
  %33 = call ptr @ossl_cmp_msg_create(ptr noundef %32, i32 noundef 12)
  store ptr %33, ptr %13, align 8, !tbaa !10
  %34 = icmp eq ptr %33, null
  br i1 %34, label %35, label %36

35:                                               ; preds = %31
  br label %95

36:                                               ; preds = %31
  %37 = load ptr, ptr %13, align 8, !tbaa !10
  %38 = getelementptr inbounds nuw %struct.ossl_cmp_msg_st, ptr %37, i32 0, i32 1
  %39 = load ptr, ptr %38, align 8, !tbaa !22
  %40 = getelementptr inbounds nuw %struct.ossl_cmp_pkibody_st, ptr %39, i32 0, i32 1
  %41 = load ptr, ptr %40, align 8, !tbaa !25
  store ptr %41, ptr %10, align 8, !tbaa !125
  %42 = load ptr, ptr %7, align 8, !tbaa !82
  %43 = call ptr @OSSL_CMP_PKISI_dup(ptr noundef %42)
  store ptr %43, ptr %11, align 8, !tbaa !82
  %44 = icmp eq ptr %43, null
  br i1 %44, label %54, label %45

45:                                               ; preds = %36
  %46 = load ptr, ptr %10, align 8, !tbaa !125
  %47 = getelementptr inbounds nuw %struct.ossl_cmp_revrepcontent_st, ptr %46, i32 0, i32 0
  %48 = load ptr, ptr %47, align 8, !tbaa !127
  %49 = call ptr @ossl_check_OSSL_CMP_PKISI_sk_type(ptr noundef %48)
  %50 = load ptr, ptr %11, align 8, !tbaa !82
  %51 = call ptr @ossl_check_OSSL_CMP_PKISI_type(ptr noundef %50)
  %52 = call i32 @OPENSSL_sk_push(ptr noundef %49, ptr noundef %51)
  %53 = icmp ne i32 %52, 0
  br i1 %53, label %55, label %54

54:                                               ; preds = %45, %36
  br label %95

55:                                               ; preds = %45
  store ptr null, ptr %11, align 8, !tbaa !82
  %56 = call ptr @OPENSSL_sk_new_null()
  %57 = load ptr, ptr %10, align 8, !tbaa !125
  %58 = getelementptr inbounds nuw %struct.ossl_cmp_revrepcontent_st, ptr %57, i32 0, i32 1
  store ptr %56, ptr %58, align 8, !tbaa !132
  %59 = icmp eq ptr %56, null
  br i1 %59, label %60, label %61

60:                                               ; preds = %55
  br label %95

61:                                               ; preds = %55
  %62 = load ptr, ptr %8, align 8, !tbaa !71
  %63 = icmp ne ptr %62, null
  br i1 %63, label %64, label %79

64:                                               ; preds = %61
  %65 = load ptr, ptr %8, align 8, !tbaa !71
  %66 = call ptr @OSSL_CRMF_CERTID_dup(ptr noundef %65)
  store ptr %66, ptr %12, align 8, !tbaa !71
  %67 = icmp eq ptr %66, null
  br i1 %67, label %77, label %68

68:                                               ; preds = %64
  %69 = load ptr, ptr %10, align 8, !tbaa !125
  %70 = getelementptr inbounds nuw %struct.ossl_cmp_revrepcontent_st, ptr %69, i32 0, i32 1
  %71 = load ptr, ptr %70, align 8, !tbaa !132
  %72 = call ptr @ossl_check_OSSL_CRMF_CERTID_sk_type(ptr noundef %71)
  %73 = load ptr, ptr %12, align 8, !tbaa !71
  %74 = call ptr @ossl_check_OSSL_CRMF_CERTID_type(ptr noundef %73)
  %75 = call i32 @OPENSSL_sk_push(ptr noundef %72, ptr noundef %74)
  %76 = icmp ne i32 %75, 0
  br i1 %76, label %78, label %77

77:                                               ; preds = %68, %64
  br label %95

78:                                               ; preds = %68
  store ptr null, ptr %12, align 8, !tbaa !71
  br label %79

79:                                               ; preds = %78, %61
  %80 = load i32, ptr %9, align 4, !tbaa !20
  %81 = icmp ne i32 %80, 0
  br i1 %81, label %82, label %86

82:                                               ; preds = %79
  %83 = load ptr, ptr %7, align 8, !tbaa !82
  %84 = call i32 @ossl_cmp_pkisi_get_status(ptr noundef %83)
  %85 = icmp ne i32 %84, 2
  br i1 %85, label %86, label %93

86:                                               ; preds = %82, %79
  %87 = load ptr, ptr %6, align 8, !tbaa !34
  %88 = load ptr, ptr %13, align 8, !tbaa !10
  %89 = call i32 @ossl_cmp_msg_protect(ptr noundef %87, ptr noundef %88)
  %90 = icmp ne i32 %89, 0
  br i1 %90, label %92, label %91

91:                                               ; preds = %86
  br label %95

92:                                               ; preds = %86
  br label %93

93:                                               ; preds = %92, %82
  %94 = load ptr, ptr %13, align 8, !tbaa !10
  store ptr %94, ptr %5, align 8
  store i32 1, ptr %14, align 4
  br label %99

95:                                               ; preds = %91, %77, %60, %54, %35
  call void @ERR_new()
  call void @ERR_set_debug(ptr noundef @.str, i32 noundef 679, ptr noundef @__func__.ossl_cmp_rp_new)
  call void (i32, i32, ptr, ...) @ERR_set_error(i32 noundef 58, i32 noundef 125, ptr noundef null)
  %96 = load ptr, ptr %11, align 8, !tbaa !82
  call void @OSSL_CMP_PKISI_free(ptr noundef %96)
  %97 = load ptr, ptr %12, align 8, !tbaa !71
  call void @OSSL_CRMF_CERTID_free(ptr noundef %97)
  %98 = load ptr, ptr %13, align 8, !tbaa !10
  call void @OSSL_CMP_MSG_free(ptr noundef %98)
  store ptr null, ptr %5, align 8
  store i32 1, ptr %14, align 4
  br label %99

99:                                               ; preds = %95, %93, %30
  call void @llvm.lifetime.end.p0(i64 8, ptr %13) #6
  call void @llvm.lifetime.end.p0(i64 8, ptr %12) #6
  call void @llvm.lifetime.end.p0(i64 8, ptr %11) #6
  call void @llvm.lifetime.end.p0(i64 8, ptr %10) #6
  %100 = load ptr, ptr %5, align 8
  ret ptr %100
}