; Function Attrs: nounwind uwtable
define ptr @ossl_cmp_rp_new(ptr noundef %0, ptr noundef %1, ptr noundef %2, i32 noundef %3) local_unnamed_addr #0 {
  %5 = icmp ne ptr %0, null
  %6 = icmp ne ptr %1, null
  %7 = and i1 %5, %6
  br i1 %7, label %8, label %39, !prof !56

8:                                                ; preds = %4
  %9 = tail call ptr @ossl_cmp_msg_create(ptr noundef nonnull %0, i32 noundef 12)
  %10 = icmp eq ptr %9, null
  br i1 %10, label %37, label %11

11:                                               ; preds = %8
  %12 = getelementptr inbounds nuw i8, ptr %9, i64 8
  %13 = load ptr, ptr %12, align 8, !tbaa !17
  %14 = getelementptr inbounds nuw i8, ptr %13, i64 8
  %15 = load ptr, ptr %14, align 8, !tbaa !22
  %16 = tail call ptr @OSSL_CMP_PKISI_dup(ptr noundef nonnull %1) #7
  %17 = icmp eq ptr %16, null
  br i1 %17, label %37, label %18

18:                                               ; preds = %11
  %19 = load ptr, ptr %15, align 8, !tbaa !83
  %20 = tail call i32 @OPENSSL_sk_push(ptr noundef %19, ptr noundef nonnull %16) #7
  %.not = icmp eq i32 %20, 0
  br i1 %.not, label %37, label %21

21:                                               ; preds = %18
  %22 = tail call ptr @OPENSSL_sk_new_null() #7
  %23 = getelementptr inbounds nuw i8, ptr %15, i64 8
  store ptr %22, ptr %23, align 8, !tbaa !88
  %24 = icmp eq ptr %22, null
  br i1 %24, label %37, label %25

25:                                               ; preds = %21
  %.not29 = icmp eq ptr %2, null
  br i1 %.not29, label %32, label %26

26:                                               ; preds = %25
  %27 = tail call ptr @OSSL_CRMF_CERTID_dup(ptr noundef nonnull %2) #7
  %28 = icmp eq ptr %27, null
  br i1 %28, label %37, label %29

29:                                               ; preds = %26
  %30 = load ptr, ptr %23, align 8, !tbaa !88
  %31 = tail call i32 @OPENSSL_sk_push(ptr noundef %30, ptr noundef nonnull %27) #7
  %.not30 = icmp eq i32 %31, 0
  br i1 %.not30, label %37, label %32

32:                                               ; preds = %29, %25
  %.not31 = icmp eq i32 %3, 0
  br i1 %.not31, label %35, label %33

33:                                               ; preds = %32
  %34 = tail call i32 @ossl_cmp_pkisi_get_status(ptr noundef nonnull %1) #7
  %.not32 = icmp eq i32 %34, 2
  br i1 %.not32, label %39, label %35

35:                                               ; preds = %33, %32
  %36 = tail call i32 @ossl_cmp_msg_protect(ptr noundef nonnull %0, ptr noundef nonnull %9) #7
  %.not33 = icmp eq i32 %36, 0
  br i1 %.not33, label %37, label %39

37:                                               ; preds = %35, %26, %29, %21, %11, %18, %8
  %.020 = phi ptr [ null, %8 ], [ null, %11 ], [ null, %21 ], [ null, %26 ], [ null, %35 ], [ null, %29 ], [ %16, %18 ]
  %.0 = phi ptr [ null, %8 ], [ null, %11 ], [ null, %21 ], [ null, %26 ], [ null, %35 ], [ %27, %29 ], [ null, %18 ]
  tail call void @ERR_new() #7
  tail call void @ERR_set_debug(ptr noundef nonnull @.str, i32 noundef 679, ptr noundef nonnull @__func__.ossl_cmp_rp_new) #7
  tail call void (i32, i32, ptr, ...) @ERR_set_error(i32 noundef 58, i32 noundef 125, ptr noundef null) #7
  tail call void @OSSL_CMP_PKISI_free(ptr noundef %.020) #7
  tail call void @OSSL_CRMF_CERTID_free(ptr noundef %.0) #7
  %38 = tail call ptr @OSSL_CMP_MSG_it() #7
  tail call void @ASN1_item_free(ptr noundef %9, ptr noundef %38) #7
  br label %39

39:                                               ; preds = %33, %35, %4, %37
  %.021 = phi ptr [ null, %37 ], [ null, %4 ], [ %9, %35 ], [ %9, %33 ]
  ret ptr %.021
}